; Function Attrs: nounwind uwtable
define internal ptr @coro_await(ptr noundef %0) #2 {
  %2 = tail call ptr @_PyObject_GC_New(ptr noundef nonnull @_PyCoroWrapper_Type) #8
  %3 = icmp eq ptr %2, null
  br i1 %3, label %33, label %4

4:                                                ; preds = %1
  %5 = load i32, ptr %0, align 8, !tbaa !4
  %6 = icmp slt i32 %5, 0
  br i1 %6, label %_Py_NewRef.exit, label %7

7:                                                ; preds = %4
  %8 = add nuw i32 %5, 1
  store i32 %8, ptr %0, align 8, !tbaa !4
  br label %_Py_NewRef.exit

_Py_NewRef.exit:                                  ; preds = %4, %7
  %9 = getelementptr inbounds nuw i8, ptr %2, i64 16
  store ptr %0, ptr %9, align 8, !tbaa !159
  %10 = getelementptr i8, ptr %2, i64 -16
  %11 = tail call align 8 ptr @llvm.threadlocal.address.p0(ptr align 8 @_Py_tss_tstate)
  %12 = load ptr, ptr %11, align 8, !tbaa !39
  %13 = getelementptr inbounds nuw i8, ptr %12, i64 16
  %14 = load ptr, ptr %13, align 8, !tbaa !41
  %15 = getelementptr inbounds nuw i8, ptr %14, i64 7424
  %16 = getelementptr inbounds nuw i8, ptr %14, i64 7432
  %17 = load i64, ptr %16, align 8, !tbaa !35
  %18 = inttoptr i64 %17 to ptr
  %19 = ptrtoint ptr %10 to i64
  %20 = load i64, ptr %18, align 8, !tbaa !37
  %21 = and i64 %20, 3
  %22 = or i64 %21, %19
  store i64 %22, ptr %18, align 8, !tbaa !37
  %23 = getelementptr i8, ptr %2, i64 -8
  %24 = load i64, ptr %23, align 8, !tbaa !35
  %25 = and i64 %24, 3
  %26 = or i64 %25, %17
  store i64 %26, ptr %23, align 8, !tbaa !35
  %27 = getelementptr inbounds nuw i8, ptr %14, i64 7632
  %28 = load i32, ptr %27, align 8, !tbaa !47
  %29 = xor i32 %28, 1
  %30 = sext i32 %29 to i64
  %31 = ptrtoint ptr %15 to i64
  %32 = or i64 %30, %31
  store i64 %32, ptr %10, align 8, !tbaa !37
  store i64 %19, ptr %16, align 8, !tbaa !35
  br label %33

33:                                               ; preds = %1, %_Py_NewRef.exit
  ret ptr %2
}